target datalayout = "e-m:e-p270:32:32-p271:32:32-p272:64:64-i64:64-i128:128-f80:128-n8:16:32:64-S128"
target triple = "x86_64-pc-linux-gnu"

%struct.ReadDirCtx = type { ptr, ptr, %struct.stat, [261 x i8] }
%struct.stat = type { i64, i64, i64, i32, i32, i32, i32, i64, i64, i64, i64, %struct.timespec, %struct.timespec, %struct.timespec, [3 x i64] }
%struct.timespec = type { i64, i64 }
%struct.dirent = type { i64, i64, i16, i8, [256 x i8] }

; Function Attrs: nounwind uwtable
define void @wc_ReadDirClose(ptr noundef %0) #0 {
  %2 = alloca ptr, align 8
  store ptr %0, ptr %2, align 8, !tbaa !25
  %3 = load ptr, ptr %2, align 8, !tbaa !25
  %4 = icmp eq ptr %3, null
  br i1 %4, label %5, label %6

5:                                                ; preds = %1
  br label %23

6:                                                ; preds = %1
  %7 = load ptr, ptr %2, align 8, !tbaa !25
  %8 = getelementptr inbounds nuw %struct.ReadDirCtx, ptr %7, i32 0, i32 1
  %9 = load ptr, ptr %8, align 8, !tbaa !27
  %10 = icmp ne ptr %9, null
  br i1 %10, label %11, label %23

11:                                               ; preds = %6
  %12 = load ptr, ptr %2, align 8, !tbaa !25
  %13 = getelementptr inbounds nuw %struct.ReadDirCtx, ptr %12, i32 0, i32 1
  %14 = load ptr, ptr %13, align 8, !tbaa !27
  %15 = call i32 @closedir(ptr noundef %14)
  %16 = icmp slt i32 %15, 0
  br i1 %16, label %17, label %20

17:                                               ; preds = %11
  br label %18

18:                                               ; preds = %17
  br label %19

19:                                               ; preds = %18
  br label %20

20:                                               ; preds = %19, %11
  %21 = load ptr, ptr %2, align 8, !tbaa !25
  %22 = getelementptr inbounds nuw %struct.ReadDirCtx, ptr %21, i32 0, i32 1
  store ptr null, ptr %22, align 8, !tbaa !27
  br label %23

23:                                               ; preds = %5, %20, %6
  ret void
}

; Function Attrs: nounwind uwtable
define i32 @wc_FileExists(ptr noundef %0) #0 {
  %2 = alloca i32, align 4
  %3 = alloca ptr, align 8
  %4 = alloca %struct.ReadDirCtx, align 8
  %5 = alloca i32, align 4
  store ptr %0, ptr %3, align 8, !tbaa !7
  call void @llvm.lifetime.start.p0(i64 424, ptr %4) #7
  call void @llvm.memset.p0.i64(ptr align 8 %4, i8 0, i64 424, i1 false)
  %6 = load ptr, ptr %3, align 8, !tbaa !7
  %7 = icmp eq ptr %6, null
  br i1 %7, label %8, label %9

8:                                                ; preds = %1
  store i32 0, ptr %2, align 4
  store i32 1, ptr %5, align 4
  br label %27

9:                                                ; preds = %1
  %10 = load ptr, ptr %3, align 8, !tbaa !7
  %11 = getelementptr inbounds nuw %struct.ReadDirCtx, ptr %4, i32 0, i32 2
  %12 = call i32 @stat(ptr noundef %10, ptr noundef %11) #7
  %13 = icmp ne i32 %12, 0
  br i1 %13, label %14, label %18

14:                                               ; preds = %9
  br label %15

15:                                               ; preds = %14
  br label %16

16:                                               ; preds = %15
  br label %17

17:                                               ; preds = %16
  store i32 -244, ptr %2, align 4
  store i32 1, ptr %5, align 4
  br label %27

18:                                               ; preds = %9
  %19 = getelementptr inbounds nuw %struct.ReadDirCtx, ptr %4, i32 0, i32 2
  %20 = getelementptr inbounds nuw %struct.stat, ptr %19, i32 0, i32 3
  %21 = load i32, ptr %20, align 8, !tbaa !19
  %22 = and i32 %21, 61440
  %23 = icmp eq i32 %22, 32768
  br i1 %23, label %24, label %25

24:                                               ; preds = %18
  store i32 0, ptr %2, align 4
  store i32 1, ptr %5, align 4
  br label %27

25:                                               ; preds = %18
  br label %26

26:                                               ; preds = %25
  store i32 -1, ptr %2, align 4
  store i32 1, ptr %5, align 4
  br label %27

27:                                               ; preds = %26, %24, %17, %8
  call void @llvm.lifetime.end.p0(i64 424, ptr %4) #7
  %28 = load i32, ptr %2, align 4
  ret i32 %28
}

; Function Attrs: nounwind uwtable
define i32 @wc_ReadDirFirst(ptr noundef %0, ptr noundef %1, ptr noundef %2) #0 {
  %4 = alloca i32, align 4
  %5 = alloca ptr, align 8
  %6 = alloca ptr, align 8
  %7 = alloca ptr, align 8
  %8 = alloca i32, align 4
  %9 = alloca i32, align 4
  %10 = alloca i32, align 4
  %11 = alloca i32, align 4
  store ptr %0, ptr %5, align 8, !tbaa !25
  store ptr %1, ptr %6, align 8, !tbaa !7
  store ptr %2, ptr %7, align 8, !tbaa !10
  call void @llvm.lifetime.start.p0(i64 4, ptr %8) #7
  store i32 -1, ptr %8, align 4, !tbaa !3
  call void @llvm.lifetime.start.p0(i64 4, ptr %9) #7
  store i32 0, ptr %9, align 4, !tbaa !3
  %12 = load ptr, ptr %7, align 8, !tbaa !10
  %13 = icmp ne ptr %12, null
  br i1 %13, label %14, label %16

14:                                               ; preds = %3
  %15 = load ptr, ptr %7, align 8, !tbaa !10
  store ptr null, ptr %15, align 8, !tbaa !7
  br label %16

16:                                               ; preds = %14, %3
  %17 = load ptr, ptr %5, align 8, !tbaa !25
  %18 = icmp eq ptr %17, null
  br i1 %18, label %22, label %19

19:                                               ; preds = %16
  %20 = load ptr, ptr %6, align 8, !tbaa !7
  %21 = icmp eq ptr %20, null
  br i1 %21, label %22, label %23

22:                                               ; preds = %19, %16
  store i32 -173, ptr %4, align 4
  store i32 1, ptr %10, align 4
  br label %114

23:                                               ; preds = %19
  %24 = load ptr, ptr %5, align 8, !tbaa !25
  call void @llvm.memset.p0.i64(ptr align 8 %24, i8 0, i64 424, i1 false)
  %25 = load ptr, ptr %6, align 8, !tbaa !7
  %26 = call i64 @strlen(ptr noundef %25) #8
  %27 = trunc i64 %26 to i32
  store i32 %27, ptr %9, align 4, !tbaa !3
  %28 = load ptr, ptr %6, align 8, !tbaa !7
  %29 = call ptr @opendir(ptr noundef %28)
  %30 = load ptr, ptr %5, align 8, !tbaa !25
  %31 = getelementptr inbounds nuw %struct.ReadDirCtx, ptr %30, i32 0, i32 1
  store ptr %29, ptr %31, align 8, !tbaa !27
  %32 = load ptr, ptr %5, align 8, !tbaa !25
  %33 = getelementptr inbounds nuw %struct.ReadDirCtx, ptr %32, i32 0, i32 1
  %34 = load ptr, ptr %33, align 8, !tbaa !27
  %35 = icmp eq ptr %34, null
  br i1 %35, label %36, label %40

36:                                               ; preds = %23
  br label %37

37:                                               ; preds = %36
  br label %38

38:                                               ; preds = %37
  br label %39

39:                                               ; preds = %38
  store i32 -244, ptr %4, align 4
  store i32 1, ptr %10, align 4
  br label %114

40:                                               ; preds = %23
  br label %41

41:                                               ; preds = %110, %40
  %42 = load ptr, ptr %5, align 8, !tbaa !25
  %43 = getelementptr inbounds nuw %struct.ReadDirCtx, ptr %42, i32 0, i32 1
  %44 = load ptr, ptr %43, align 8, !tbaa !27
  %45 = call ptr @readdir(ptr noundef %44)
  %46 = load ptr, ptr %5, align 8, !tbaa !25
  %47 = getelementptr inbounds nuw %struct.ReadDirCtx, ptr %46, i32 0, i32 0
  store ptr %45, ptr %47, align 8, !tbaa !28
  %48 = icmp ne ptr %45, null
  br i1 %48, label %49, label %111

49:                                               ; preds = %41
  call void @llvm.lifetime.start.p0(i64 4, ptr %11) #7
  %50 = load ptr, ptr %5, align 8, !tbaa !25
  %51 = getelementptr inbounds nuw %struct.ReadDirCtx, ptr %50, i32 0, i32 0
  %52 = load ptr, ptr %51, align 8, !tbaa !28
  %53 = getelementptr inbounds nuw %struct.dirent, ptr %52, i32 0, i32 4
  %54 = getelementptr inbounds [256 x i8], ptr %53, i64 0, i64 0
  %55 = call i64 @strlen(ptr noundef %54) #8
  %56 = trunc i64 %55 to i32
  store i32 %56, ptr %11, align 4, !tbaa !3
  %57 = load i32, ptr %9, align 4, !tbaa !3
  %58 = load i32, ptr %11, align 4, !tbaa !3
  %59 = add nsw i32 %57, %58
  %60 = add nsw i32 %59, 2
  %61 = icmp sge i32 %60, 261
  br i1 %61, label %62, label %63

62:                                               ; preds = %49
  store i32 -244, ptr %8, align 4, !tbaa !3
  store i32 5, ptr %10, align 4
  br label %108

63:                                               ; preds = %49
  %64 = load ptr, ptr %5, align 8, !tbaa !25
  %65 = getelementptr inbounds nuw %struct.ReadDirCtx, ptr %64, i32 0, i32 3
  %66 = getelementptr inbounds [261 x i8], ptr %65, i64 0, i64 0
  %67 = load ptr, ptr %6, align 8, !tbaa !7
  %68 = load i32, ptr %9, align 4, !tbaa !3
  %69 = sext i32 %68 to i64
  %70 = add i64 %69, 1
  %71 = call ptr @strncpy(ptr noundef %66, ptr noundef %67, i64 noundef %70) #7
  %72 = load ptr, ptr %5, align 8, !tbaa !25
  %73 = getelementptr inbounds nuw %struct.ReadDirCtx, ptr %72, i32 0, i32 3
  %74 = load i32, ptr %9, align 4, !tbaa !3
  %75 = sext i32 %74 to i64
  %76 = getelementptr inbounds [261 x i8], ptr %73, i64 0, i64 %75
  store i8 47, ptr %76, align 1, !tbaa !29
  %77 = load ptr, ptr %5, align 8, !tbaa !25
  %78 = getelementptr inbounds nuw %struct.ReadDirCtx, ptr %77, i32 0, i32 3
  %79 = getelementptr inbounds [261 x i8], ptr %78, i64 0, i64 0
  %80 = load i32, ptr %9, align 4, !tbaa !3
  %81 = sext i32 %80 to i64
  %82 = getelementptr inbounds i8, ptr %79, i64 %81
  %83 = getelementptr inbounds i8, ptr %82, i64 1
  %84 = load ptr, ptr %5, align 8, !tbaa !25
  %85 = getelementptr inbounds nuw %struct.ReadDirCtx, ptr %84, i32 0, i32 0
  %86 = load ptr, ptr %85, align 8, !tbaa !28
  %87 = getelementptr inbounds nuw %struct.dirent, ptr %86, i32 0, i32 4
  %88 = getelementptr inbounds [256 x i8], ptr %87, i64 0, i64 0
  %89 = load i32, ptr %11, align 4, !tbaa !3
  %90 = sext i32 %89 to i64
  %91 = add i64 %90, 1
  %92 = call ptr @strncpy(ptr noundef %83, ptr noundef %88, i64 noundef %91) #7
  %93 = load ptr, ptr %5, align 8, !tbaa !25
  %94 = getelementptr inbounds nuw %struct.ReadDirCtx, ptr %93, i32 0, i32 3
  %95 = getelementptr inbounds [261 x i8], ptr %94, i64 0, i64 0
  %96 = call i32 @wc_FileExists(ptr noundef %95)
  store i32 %96, ptr %8, align 4, !tbaa !3
  %97 = icmp eq i32 %96, 0
  br i1 %97, label %98, label %107

98:                                               ; preds = %63
  %99 = load ptr, ptr %7, align 8, !tbaa !10
  %100 = icmp ne ptr %99, null
  br i1 %100, label %101, label %106

101:                                              ; preds = %98
  %102 = load ptr, ptr %5, align 8, !tbaa !25
  %103 = getelementptr inbounds nuw %struct.ReadDirCtx, ptr %102, i32 0, i32 3
  %104 = getelementptr inbounds [261 x i8], ptr %103, i64 0, i64 0
  %105 = load ptr, ptr %7, align 8, !tbaa !10
  store ptr %104, ptr %105, align 8, !tbaa !7
  br label %106

106:                                              ; preds = %101, %98
  store i32 0, ptr %4, align 4
  store i32 1, ptr %10, align 4
  br label %108

107:                                              ; preds = %63
  store i32 0, ptr %10, align 4
  br label %108

108:                                              ; preds = %107, %106, %62
  call void @llvm.lifetime.end.p0(i64 4, ptr %11) #7
  %109 = load i32, ptr %10, align 4
  switch i32 %109, label %114 [
    i32 0, label %110
    i32 5, label %111
  ]

110:                                              ; preds = %108
  br label %41, !llvm.loop !30

111:                                              ; preds = %108, %41
  %112 = load ptr, ptr %5, align 8, !tbaa !25
  call void @wc_ReadDirClose(ptr noundef %112)
  %113 = load i32, ptr %8, align 4, !tbaa !3
  store i32 %113, ptr %4, align 4
  store i32 1, ptr %10, align 4
  br label %114

114:                                              ; preds = %111, %108, %39, %22
  call void @llvm.lifetime.end.p0(i64 4, ptr %9) #7
  call void @llvm.lifetime.end.p0(i64 4, ptr %8) #7
  %115 = load i32, ptr %4, align 4
  ret i32 %115
}