; Function Attrs: nounwind uwtable
define range(i32 -244, 1) i32 @wc_ReadDirFirst(ptr noundef %0, ptr noundef readonly captures(address_is_null) %1, ptr noundef writeonly captures(address_is_null) %2) local_unnamed_addr #2 {
  %4 = alloca %struct.ReadDirCtx, align 8
  %.not = icmp eq ptr %2, null
  br i1 %.not, label %6, label %5

5:                                                ; preds = %3
  store ptr null, ptr %2, align 8, !tbaa !7
  br label %6

6:                                                ; preds = %5, %3
  %7 = icmp eq ptr %0, null
  %8 = icmp eq ptr %1, null
  %or.cond = or i1 %7, %8
  br i1 %or.cond, label %wc_ReadDirClose.exit, label %9

9:                                                ; preds = %6
  tail call void @llvm.memset.p0.i64(ptr noundef nonnull align 8 dereferenceable(424) %0, i8 0, i64 424, i1 false)
  %10 = tail call i64 @strlen(ptr noundef nonnull dereferenceable(1) %1) #17
  %11 = trunc i64 %10 to i32
  %12 = tail call ptr @opendir(ptr noundef nonnull %1)
  %13 = getelementptr inbounds nuw i8, ptr %0, i64 8
  store ptr %12, ptr %13, align 8, !tbaa !18
  %14 = icmp eq ptr %12, null
  br i1 %14, label %wc_ReadDirClose.exit, label %.preheader

.preheader:                                       ; preds = %9
  %15 = tail call ptr @readdir(ptr noundef nonnull %12) #16
  store ptr %15, ptr %0, align 8, !tbaa !19
  %.not4258 = icmp eq ptr %15, null
  br i1 %.not4258, label %.thread54, label %.lr.ph

.lr.ph:                                           ; preds = %.preheader
  %16 = getelementptr inbounds nuw i8, ptr %0, i64 160
  %sext = shl i64 %10, 32
  %17 = ashr exact i64 %sext, 32
  %18 = add nsw i64 %17, 1
  %19 = getelementptr inbounds [261 x i8], ptr %16, i64 0, i64 %17
  %20 = getelementptr inbounds nuw i8, ptr %19, i64 1
  %21 = getelementptr inbounds nuw i8, ptr %4, i64 16
  %22 = getelementptr inbounds nuw i8, ptr %4, i64 40
  br i1 %.not, label %.lr.ph.split.us, label %.lr.ph.split

.lr.ph.split.us:                                  ; preds = %.lr.ph, %29
  %23 = phi ptr [ %31, %29 ], [ %15, %.lr.ph ]
  %24 = getelementptr inbounds nuw i8, ptr %23, i64 19
  %25 = tail call i64 @strlen(ptr noundef nonnull dereferenceable(1) %24) #17
  %26 = trunc i64 %25 to i32
  %27 = add nsw i32 %26, %11
  %28 = icmp sgt i32 %27, 258
  br i1 %28, label %.thread54, label %32

29:                                               ; preds = %.thread65, %40
  %.234.us68 = phi i32 [ -244, %.thread65 ], [ -1, %40 ]
  %30 = load ptr, ptr %13, align 8, !tbaa !18
  %31 = tail call ptr @readdir(ptr noundef %30) #16
  store ptr %31, ptr %0, align 8, !tbaa !19
  %.not42.us = icmp eq ptr %31, null
  br i1 %.not42.us, label %.thread54, label %.lr.ph.split.us

32:                                               ; preds = %.lr.ph.split.us
  %33 = tail call ptr @strncpy(ptr noundef nonnull %16, ptr noundef nonnull %1, i64 noundef %18) #16
  store i8 47, ptr %19, align 1, !tbaa !20
  %34 = load ptr, ptr %0, align 8, !tbaa !19
  %35 = getelementptr inbounds nuw i8, ptr %34, i64 19
  %sext43.us = shl i64 %25, 32
  %36 = ashr exact i64 %sext43.us, 32
  %37 = add nsw i64 %36, 1
  %38 = tail call ptr @strncpy(ptr noundef nonnull %20, ptr noundef nonnull %35, i64 noundef %37) #16
  call void @llvm.lifetime.start.p0(i64 424, ptr nonnull %4) #16
  call void @llvm.memset.p0.i64(ptr noundef nonnull align 8 dereferenceable(424) %4, i8 0, i64 424, i1 false)
  %39 = call i32 @stat(ptr noundef nonnull readonly %16, ptr noundef nonnull %21) #16
  %.not.i.us = icmp eq i32 %39, 0
  br i1 %.not.i.us, label %40, label %.thread65

.thread65:                                        ; preds = %32
  call void @llvm.lifetime.end.p0(i64 424, ptr nonnull %4) #16
  br label %29

40:                                               ; preds = %32
  %41 = load i32, ptr %22, align 8, !tbaa !12
  %42 = and i32 %41, 61440
  %.not72 = icmp eq i32 %42, 32768
  call void @llvm.lifetime.end.p0(i64 424, ptr nonnull %4) #16
  br i1 %.not72, label %wc_ReadDirClose.exit, label %29

43:                                               ; preds = %wc_FileExists.exit, %wc_FileExists.exit.thread
  %.234 = phi i32 [ -1, %wc_FileExists.exit ], [ -244, %wc_FileExists.exit.thread ]
  %44 = load ptr, ptr %13, align 8, !tbaa !18
  %45 = tail call ptr @readdir(ptr noundef %44) #16
  store ptr %45, ptr %0, align 8, !tbaa !19
  %.not42 = icmp eq ptr %45, null
  br i1 %.not42, label %.thread54, label %.lr.ph.split

.lr.ph.split:                                     ; preds = %.lr.ph, %43
  %46 = phi ptr [ %45, %43 ], [ %15, %.lr.ph ]
  %47 = getelementptr inbounds nuw i8, ptr %46, i64 19
  %48 = tail call i64 @strlen(ptr noundef nonnull dereferenceable(1) %47) #17
  %49 = trunc i64 %48 to i32
  %50 = add nsw i32 %49, %11
  %51 = icmp sgt i32 %50, 258
  br i1 %51, label %.thread54, label %52

52:                                               ; preds = %.lr.ph.split
  %53 = tail call ptr @strncpy(ptr noundef nonnull %16, ptr noundef nonnull %1, i64 noundef %18) #16
  store i8 47, ptr %19, align 1, !tbaa !20
  %54 = load ptr, ptr %0, align 8, !tbaa !19
  %55 = getelementptr inbounds nuw i8, ptr %54, i64 19
  %sext43 = shl i64 %48, 32
  %56 = ashr exact i64 %sext43, 32
  %57 = add nsw i64 %56, 1
  %58 = tail call ptr @strncpy(ptr noundef nonnull %20, ptr noundef nonnull %55, i64 noundef %57) #16
  call void @llvm.lifetime.start.p0(i64 424, ptr nonnull %4) #16
  call void @llvm.memset.p0.i64(ptr noundef nonnull align 8 dereferenceable(424) %4, i8 0, i64 424, i1 false)
  %59 = call i32 @stat(ptr noundef nonnull readonly %16, ptr noundef nonnull %21) #16
  %.not.i = icmp eq i32 %59, 0
  br i1 %.not.i, label %wc_FileExists.exit, label %wc_FileExists.exit.thread

wc_FileExists.exit.thread:                        ; preds = %52
  call void @llvm.lifetime.end.p0(i64 424, ptr nonnull %4) #16
  br label %43

wc_FileExists.exit:                               ; preds = %52
  %60 = load i32, ptr %22, align 8, !tbaa !12
  %61 = and i32 %60, 61440
  %.not71 = icmp eq i32 %61, 32768
  call void @llvm.lifetime.end.p0(i64 424, ptr nonnull %4) #16
  br i1 %.not71, label %.thread, label %43

.thread:                                          ; preds = %wc_FileExists.exit
  store ptr %16, ptr %2, align 8, !tbaa !7
  br label %wc_ReadDirClose.exit

.thread54:                                        ; preds = %43, %.lr.ph.split, %29, %.lr.ph.split.us, %.preheader
  %.133 = phi i32 [ -1, %.preheader ], [ -244, %.lr.ph.split.us ], [ %.234.us68, %29 ], [ -244, %.lr.ph.split ], [ %.234, %43 ]
  %62 = load ptr, ptr %13, align 8, !tbaa !18
  %.not.i46 = icmp eq ptr %62, null
  br i1 %.not.i46, label %wc_ReadDirClose.exit, label %63

63:                                               ; preds = %.thread54
  %64 = tail call i32 @closedir(ptr noundef nonnull %62)
  store ptr null, ptr %13, align 8, !tbaa !18
  br label %wc_ReadDirClose.exit

wc_ReadDirClose.exit:                             ; preds = %40, %63, %.thread54, %.thread, %9, %6
  %.0 = phi i32 [ -173, %6 ], [ -244, %9 ], [ 0, %.thread ], [ %.133, %.thread54 ], [ %.133, %63 ], [ 0, %40 ]
  ret i32 %.0
}